target datalayout = "e-m:e-p270:32:32-p271:32:32-p272:64:64-i64:64-i128:128-f80:128-n8:16:32:64-S128"
target triple = "x86_64-pc-linux-gnu"

%class.MemRegion = type { ptr, i64 }
%class.SerialHeap = type { %class.CollectedHeap, ptr, ptr, ptr, ptr, ptr, ptr, ptr, ptr, ptr, ptr, ptr }
%class.CollectedHeap = type { ptr, ptr, i64, i64, %class.SoftRefPolicy, %class.MemRegion, i8, i64, i32, i32, i32, i32, ptr, ptr }
%class.SoftRefPolicy = type { i8, i8 }

@.str = private unnamed_addr constant [9 x i8] c"Copy:MSC\00", align 1
@.str.4 = private unnamed_addr constant [5 x i8] c"Copy\00", align 1
@.str.5 = private unnamed_addr constant [17 x i8] c"MarkSweepCompact\00", align 1

; Function Attrs: mustprogress nounwind uwtable
define hidden void @_ZN10SerialHeapC2Ev(ptr noundef nonnull align 8 dereferenceable(192) %0) unnamed_addr #1 align 2 {
  %2 = alloca i64, align 8
  %3 = alloca i8, align 1
  %4 = alloca i64, align 8
  %5 = alloca i8, align 1
  %6 = alloca i64, align 8
  %7 = alloca i8, align 1
  %8 = alloca i64, align 8
  %9 = alloca i64, align 8
  %10 = alloca i64, align 8
  %11 = alloca ptr, align 8
  store ptr %0, ptr %11, align 8
  %12 = load ptr, ptr %11, align 8
  call void @_ZN13CollectedHeapC2Ev(ptr noundef nonnull align 8 dereferenceable(104) %12)
  store ptr getelementptr inbounds inrange(-16, 480) ({ [62 x ptr] }, ptr @_ZTV10SerialHeap, i32 0, i32 0, i32 2), ptr %12, align 8
  %13 = getelementptr inbounds %class.SerialHeap, ptr %12, i32 0, i32 1
  store ptr null, ptr %13, align 8
  %14 = getelementptr inbounds %class.SerialHeap, ptr %12, i32 0, i32 2
  store ptr null, ptr %14, align 8
  %15 = getelementptr inbounds %class.SerialHeap, ptr %12, i32 0, i32 5
  store ptr null, ptr %15, align 8
  %16 = getelementptr inbounds %class.SerialHeap, ptr %12, i32 0, i32 6
  store i64 40, ptr %10, align 8
  %17 = load i64, ptr %10, align 8
  store i64 %17, ptr %2, align 8
  store i8 5, ptr %3, align 1
  %18 = load i64, ptr %2, align 8
  %19 = load i8, ptr %3, align 1
  %20 = call noundef ptr @_Z12AllocateHeapm8MEMFLAGSN17AllocFailStrategy13AllocFailEnumE(i64 noundef %18, i8 noundef zeroext %19, i32 noundef 0) #10
  call void @_ZN16GCPolicyCountersC1EPKcii(ptr noundef nonnull align 8 dereferenceable(40) %20, ptr noundef @.str, i32 noundef 2, i32 noundef 2)
  store ptr %20, ptr %16, align 8
  %21 = getelementptr inbounds %class.SerialHeap, ptr %12, i32 0, i32 7
  store ptr null, ptr %21, align 8
  %22 = getelementptr inbounds %class.SerialHeap, ptr %12, i32 0, i32 8
  store ptr null, ptr %22, align 8
  %23 = getelementptr inbounds %class.SerialHeap, ptr %12, i32 0, i32 9
  store ptr null, ptr %23, align 8
  %24 = getelementptr inbounds %class.SerialHeap, ptr %12, i32 0, i32 10
  store ptr null, ptr %24, align 8
  %25 = getelementptr inbounds %class.SerialHeap, ptr %12, i32 0, i32 11
  store ptr null, ptr %25, align 8
  store i64 192, ptr %8, align 8
  %26 = load i64, ptr %8, align 8
  store i64 %26, ptr %6, align 8
  store i8 9, ptr %7, align 1
  %27 = load i64, ptr %6, align 8
  %28 = load i8, ptr %7, align 1
  %29 = call noundef ptr @_Z12AllocateHeapm8MEMFLAGSN17AllocFailStrategy13AllocFailEnumE(i64 noundef %27, i8 noundef zeroext %28, i32 noundef 0) #10
  call void @_ZN15GCMemoryManagerC1EPKc(ptr noundef nonnull align 8 dereferenceable(191) %29, ptr noundef @.str.4)
  %30 = getelementptr inbounds %class.SerialHeap, ptr %12, i32 0, i32 7
  store ptr %29, ptr %30, align 8
  store i64 192, ptr %9, align 8
  %31 = load i64, ptr %9, align 8
  store i64 %31, ptr %4, align 8
  store i8 9, ptr %5, align 1
  %32 = load i64, ptr %4, align 8
  %33 = load i8, ptr %5, align 1
  %34 = call noundef ptr @_Z12AllocateHeapm8MEMFLAGSN17AllocFailStrategy13AllocFailEnumE(i64 noundef %32, i8 noundef zeroext %33, i32 noundef 0) #10
  call void @_ZN15GCMemoryManagerC1EPKc(ptr noundef nonnull align 8 dereferenceable(191) %34, ptr noundef @.str.5)
  %35 = getelementptr inbounds %class.SerialHeap, ptr %12, i32 0, i32 8
  store ptr %34, ptr %35, align 8
  ret void
}