; Function Attrs: mustprogress nounwind uwtable
define hidden void @_ZN10SerialHeapC2Ev(ptr noundef nonnull align 8 dereferenceable(192) %0) unnamed_addr #0 align 2 {
  tail call void @_ZN13CollectedHeapC2Ev(ptr noundef nonnull align 8 dereferenceable(104) %0) #16
  store ptr getelementptr inbounds inrange(-16, 480) (i8, ptr @_ZTV10SerialHeap, i64 16), ptr %0, align 8
  %2 = getelementptr inbounds i8, ptr %0, i64 104
  %3 = getelementptr inbounds i8, ptr %0, i64 136
  store ptr null, ptr %3, align 8
  %4 = getelementptr inbounds i8, ptr %0, i64 144
  tail call void @llvm.memset.p0.i64(ptr noundef nonnull align 8 dereferenceable(16) %2, i8 0, i64 16, i1 false)
  %5 = tail call noundef ptr @_Z12AllocateHeapm8MEMFLAGSN17AllocFailStrategy13AllocFailEnumE(i64 noundef 40, i8 noundef zeroext 5, i32 noundef 0) #16
  tail call void @_ZN16GCPolicyCountersC1EPKcii(ptr noundef nonnull align 8 dereferenceable(40) %5, ptr noundef nonnull @.str, i32 noundef 2, i32 noundef 2) #16
  store ptr %5, ptr %4, align 8
  %6 = getelementptr inbounds i8, ptr %0, i64 152
  %7 = getelementptr inbounds i8, ptr %0, i64 160
  tail call void @llvm.memset.p0.i64(ptr noundef nonnull align 8 dereferenceable(40) %6, i8 0, i64 40, i1 false)
  %8 = tail call noundef ptr @_Z12AllocateHeapm8MEMFLAGSN17AllocFailStrategy13AllocFailEnumE(i64 noundef 192, i8 noundef zeroext 9, i32 noundef 0) #16
  tail call void @_ZN15GCMemoryManagerC1EPKc(ptr noundef nonnull align 8 dereferenceable(191) %8, ptr noundef nonnull @.str.4) #16
  store ptr %8, ptr %6, align 8
  %9 = tail call noundef ptr @_Z12AllocateHeapm8MEMFLAGSN17AllocFailStrategy13AllocFailEnumE(i64 noundef 192, i8 noundef zeroext 9, i32 noundef 0) #16
  tail call void @_ZN15GCMemoryManagerC1EPKc(ptr noundef nonnull align 8 dereferenceable(191) %9, ptr noundef nonnull @.str.5) #16
  store ptr %9, ptr %7, align 8
  ret void
}